Certificate:
    Data:
        Version: 3 (0x2)
        Serial Number: 11078087720677522869 (0x99bd46167599bdb5)
    Signature Algorithm: sha1WithRSAEncryption
        Issuer: C=US, ST=California, O=Bumper, OU=Bumper, CN=Bumper
        Validity
            Not Before: Feb  1 06:17:18 2019 GMT
            Not After : Jan 29 06:17:18 2029 GMT
        Subject: CN=Bumper
        Subject Public Key Info:
            Public Key Algorithm: rsaEncryption
                Public-Key: (2048 bit)
                Modulus:
                    00:d1:e1:2a:b2:59:da:25:c6:e1:a9:36:a5:54:c4:
                    13:35:3f:3f:b3:af:79:ee:b2:d2:c3:bf:1c:65:25:
                    50:10:84:8d:33:0c:92:e1:0e:6d:61:82:73:5d:71:
                    26:ab:2a:7c:ac:13:16:00:0a:df:58:66:8f:3b:cb:
                    20:2a:ce:ab:0b:d5:1c:62:ea:d5:af:51:9b:c6:db:
                    15:75:14:51:23:f7:e0:b6:dd:ab:b5:64:18:76:40:
                    48:ec:3c:fd:be:39:1c:50:5d:6d:5b:0c:9d:5b:33:
                    ed:2a:e9:f3:1c:6a:bd:5c:d5:98:f0:db:c9:e1:ea:
                    b9:76:73:b5:a0:5d:70:c8:f5:9e:e5:b6:ca:51:12:
                    69:03:78:0e:5e:e0:ad:11:8f:93:3a:ff:be:f0:f2:
                    b7:bd:d3:d0:9e:41:35:a4:54:67:4d:f0:4f:e6:b9:
                    9a:b6:74:5e:16:56:df:c4:25:02:c1:c9:ea:5f:96:
                    b4:f8:17:83:6a:7c:38:19:29:b8:9b:43:02:15:71:
                    96:11:bd:3b:3f:ef:09:51:d5:0f:fb:6a:db:30:86:
                    70:51:be:36:04:1c:ff:50:a0:5e:83:8d:74:be:0c:
                    21:3c:84:b2:41:eb:56:e1:71:a7:dd:b2:c9:93:dd:
                    f7:18:53:ba:82:f3:94:f4:25:5d:cc:f7:71:44:f3:
                    cb:3d
                Exponent: 65537 (0x10001)
        X509v3 extensions:
            X509v3 Basic Constraints: 
                CA:FALSE
            X509v3 Subject Key Identifier: 
                26:7E:4F:14:80:43:9E:EF:64:C2:61:6E:81:68:4B:6A:F2:4E:B5:40
            X509v3 Authority Key Identifier: 
                keyid:5E:39:C7:78:31:83:30:51:82:D9:88:9B:73:0B:72:EF:44:74:7B:D5

            X509v3 Subject Alternative Name: 
                DNS:*.ecouser.net, DNS:*.ecovacs.com
            X509v3 Key Usage: critical
                Digital Signature, Key Encipherment
            X509v3 Extended Key Usage: critical
                TLS Web Server Authentication, TLS Web Client Authentication
    Signature Algorithm: sha1WithRSAEncryption
         89:11:41:18:ac:22:0d:4a:08:31:ee:18:d4:cf:88:02:93:f0:
         ef:53:f5:86:e1:b2:16:0e:8d:87:f9:e9:29:7a:aa:95:4e:d7:
         89:96:ac:1c:9a:19:8c:84:62:41:7a:b8:8c:46:07:8f:56:ae:
         18:31:52:cb:60:3f:01:57:4d:65:d6:5f:95:da:bc:c1:53:35:
         fa:cc:c6:49:aa:fe:35:d3:05:15:2c:bd:9b:ac:f0:36:d7:71:
         bc:ed:3e:f9:ac:c8:84:58:5e:f0:02:02:47:9c:0f:f3:f6:06:
         35:4d:3b:69:2f:bb:81:cd:ae:61:84:75:97:b1:c2:e7:e1:74:
         18:61:bc:c0:6b:2e:4d:f6:61:0d:36:72:3d:e2:ef:ef:e5:cf:
         7a:17:af:d6:7c:d2:a4:88:ca:b3:4e:27:7e:f3:da:96:33:ef:
         12:12:02:5a:31:70:82:e9:b6:e4:a9:57:d7:a4:b3:f6:3f:ea:
         fa:63:6a:e6:b7:26:73:bb:c1:87:4e:e2:13:40:65:b9:04:3c:
         c9:95:d7:8e:07:6f:9d:af:d2:36:ee:aa:5d:e5:f9:bb:cc:47:
         9c:ce:62:cf:28:2e:a3:58:8b:63:a2:e3:c3:f4:b0:69:98:aa:
         84:ff:a5:c2:52:8b:e8:b4:5c:2c:67:ef:63:b3:5c:42:95:6d:
         6b:d7:5b:11
-----BEGIN CERTIFICATE-----
MIIDkzCCAnugAwIBAgIJAJm9RhZ1mb21MA0GCSqGSIb3DQEBBQUAMFUxCzAJBgNV
BAYTAlVTMRMwEQYDVQQIEwpDYWxpZm9ybmlhMQ8wDQYDVQQKEwZCdW1wZXIxDzAN
BgNVBAsTBkJ1bXBlcjEPMA0GA1UEAxMGQnVtcGVyMB4XDTE5MDIwMTA2MTcxOFoX
DTI5MDEyOTA2MTcxOFowETEPMA0GA1UEAwwGQnVtcGVyMIIBIjANBgkqhkiG9w0B
AQEFAAOCAQ8AMIIBCgKCAQEA0eEqslnaJcbhqTalVMQTNT8/s6957rLSw78cZSVQ
EISNMwyS4Q5tYYJzXXEmqyp8rBMWAArfWGaPO8sgKs6rC9UcYurVr1GbxtsVdRRR
I/fgtt2rtWQYdkBI7Dz9vjkcUF1tWwydWzPtKunzHGq9XNWY8NvJ4eq5dnO1oF1w
yPWe5bbKURJpA3gOXuCtEY+TOv++8PK3vdPQnkE1pFRnTfBP5rmatnReFlbfxCUC
wcnqX5a0+BeDanw4GSm4m0MCFXGWEb07P+8JUdUP+2rbMIZwUb42BBz/UKBeg410
vgwhPISyQetW4XGn3bLJk933GFO6gvOU9CVdzPdxRPPLPQIDAQABo4GpMIGmMAkG
A1UdEwQCMAAwHQYDVR0OBBYEFCZ+TxSAQ57vZMJhboFoS2ryTrVAMB8GA1UdIwQY
MBaAFF45x3gxgzBRgtmIm3MLcu9EdHvVMCcGA1UdEQQgMB6CDSouZWNvdXNlci5u
ZXSCDSouZWNvdmFjcy5jb20wDgYDVR0PAQH/BAQDAgWgMCAGA1UdJQEB/wQWMBQG
CCsGAQUFBwMBBggrBgEFBQcDAjANBgkqhkiG9w0BAQUFAAOCAQEAiRFBGKwiDUoI
Me4Y1M+IApPw71P1huGyFg6Nh/npKXqqlU7XiZasHJoZjIRiQXq4jEYHj1auGDFS
y2A/AVdNZdZfldq8wVM1+szGSar+NdMFFSy9m6zwNtdxvO0++azIhFhe8AICR5wP
8/YGNU07aS+7gc2uYYR1l7HC5+F0GGG8wGsuTfZhDTZyPeLv7+XPehev1nzSpIjK
s04nfvPaljPvEhICWjFwgum25KlX16Sz9j/q+mNq5rcmc7vBh07iE0BluQQ8yZXX
jgdvna/SNu6qXeX5u8xHnM5izyguo1iLY6Ljw/SwaZiqhP+lwlKL6LRcLGfvY7Nc
QpVta9dbEQ==
-----END CERTIFICATE-----
