Certificate:
    Data:
        Version: 3 (0x2)
        Serial Number: 11078087720677522868 (0x99bd46167599bdb4)
    Signature Algorithm: sha1WithRSAEncryption
        Issuer: C=US, ST=California, O=Bumper, OU=Bumper, CN=Bumper
        Validity
            Not Before: Feb  1 05:59:32 2019 GMT
            Not After : Jan 29 05:59:32 2029 GMT
        Subject: C=US, ST=California, O=Bumper, OU=Bumper, CN=Bumper
        Subject Public Key Info:
            Public Key Algorithm: rsaEncryption
                Public-Key: (2048 bit)
                Modulus:
                    00:aa:6e:af:15:99:3b:09:32:a1:a7:4b:ee:f7:13:
                    68:c1:94:4f:09:71:54:99:02:2d:27:c1:5f:16:2e:
                    45:d3:a6:44:24:fb:bd:f0:9b:a9:f6:6c:49:6f:09:
                    13:76:d6:5b:88:c2:fc:8b:8b:14:4c:39:df:8a:b5:
                    51:a8:83:c1:73:ca:aa:f1:b7:b4:38:e1:f0:91:35:
                    be:6f:c6:99:7c:e1:ef:d9:c0:ee:d5:fb:f8:f5:0f:
                    a7:96:b3:78:95:d6:2a:04:7d:3b:31:42:b6:33:c0:
                    36:2c:06:f1:6d:db:11:99:16:3e:77:c6:c6:df:ed:
                    95:40:b8:39:a2:82:40:fe:bb:f6:8b:63:0c:c6:96:
                    ae:fd:3b:c7:79:a4:f5:5f:4e:83:87:27:33:bb:6f:
                    cf:43:86:55:73:6c:0c:28:61:89:66:72:b3:90:3d:
                    d8:54:53:6a:3a:57:76:01:05:58:ac:78:3d:0d:0a:
                    52:b4:b7:be:2b:4e:9a:6a:f4:f8:a2:3f:21:99:b6:
                    b4:74:fb:d5:c0:23:7b:e8:51:f5:0a:ec:6a:11:4e:
                    9b:c3:f2:56:00:06:3b:58:e3:cf:67:b6:c3:26:50:
                    0e:f7:72:11:3f:39:2c:c9:b7:d5:69:1a:33:dc:8f:
                    81:66:c5:88:3f:c7:01:94:f0:3d:ac:aa:f3:a0:2a:
                    e8:c7
                Exponent: 65537 (0x10001)
        X509v3 extensions:
            X509v3 Subject Key Identifier: 
                5E:39:C7:78:31:83:30:51:82:D9:88:9B:73:0B:72:EF:44:74:7B:D5
            X509v3 Authority Key Identifier: 
                keyid:5E:39:C7:78:31:83:30:51:82:D9:88:9B:73:0B:72:EF:44:74:7B:D5
                DirName:/C=US/ST=California/O=Bumper/OU=Bumper/CN=Bumper
                serial:99:BD:46:16:75:99:BD:B4

            X509v3 Basic Constraints: 
                CA:TRUE
            X509v3 Subject Alternative Name: 
                email:null@null.com
    Signature Algorithm: sha1WithRSAEncryption
         5e:45:c7:34:7f:9b:a4:6b:cc:3c:e7:34:84:76:ee:ec:98:be:
         0f:de:ab:b2:a5:6d:59:18:eb:20:de:a4:fc:2c:4d:e4:9a:9c:
         63:99:be:16:6a:1d:c0:57:73:e8:7f:9e:78:4d:2a:e6:11:a3:
         b6:57:18:84:6e:ae:a7:97:08:7e:1f:4d:33:fc:46:06:a7:d1:
         6e:3a:d1:d9:ef:ba:fd:87:b8:e0:ea:51:85:d2:a6:de:49:e1:
         a6:43:d1:26:15:e2:f9:8b:8c:f0:94:fe:a3:62:dd:cc:ab:be:
         a5:dc:90:d8:28:0c:85:4b:fb:df:4a:f1:ac:35:86:7f:63:fd:
         ca:c6:aa:29:0b:b0:e1:e3:08:e6:4c:71:d2:08:32:c9:09:22:
         6c:61:ec:87:49:8d:77:48:7a:f7:75:86:bb:4e:17:b0:fe:43:
         4d:2f:95:bd:d5:0f:c1:ef:ba:f7:3e:e0:b6:2f:fa:4a:c9:45:
         36:97:56:a4:6d:af:86:88:ff:98:2f:b2:e4:04:4d:c4:02:20:
         fc:66:8c:d5:2b:e9:5a:6c:1f:d2:67:34:c3:39:7e:f4:c7:37:
         53:6b:11:99:a8:29:8b:3f:f6:3a:82:ae:f5:2c:d5:b7:23:88:
         bb:03:84:ad:cb:d0:f6:8d:24:9f:54:08:d1:39:da:1a:a9:f6:
         1b:c9:53:65
-----BEGIN CERTIFICATE-----
MIIEADCCAuigAwIBAgIJAJm9RhZ1mb20MA0GCSqGSIb3DQEBBQUAMFUxCzAJBgNV
BAYTAlVTMRMwEQYDVQQIEwpDYWxpZm9ybmlhMQ8wDQYDVQQKEwZCdW1wZXIxDzAN
BgNVBAsTBkJ1bXBlcjEPMA0GA1UEAxMGQnVtcGVyMB4XDTE5MDIwMTA1NTkzMloX
DTI5MDEyOTA1NTkzMlowVTELMAkGA1UEBhMCVVMxEzARBgNVBAgTCkNhbGlmb3Ju
aWExDzANBgNVBAoTBkJ1bXBlcjEPMA0GA1UECxMGQnVtcGVyMQ8wDQYDVQQDEwZC
dW1wZXIwggEiMA0GCSqGSIb3DQEBAQUAA4IBDwAwggEKAoIBAQCqbq8VmTsJMqGn
S+73E2jBlE8JcVSZAi0nwV8WLkXTpkQk+73wm6n2bElvCRN21luIwvyLixRMOd+K
tVGog8Fzyqrxt7Q44fCRNb5vxpl84e/ZwO7V+/j1D6eWs3iV1ioEfTsxQrYzwDYs
BvFt2xGZFj53xsbf7ZVAuDmigkD+u/aLYwzGlq79O8d5pPVfToOHJzO7b89DhlVz
bAwoYYlmcrOQPdhUU2o6V3YBBViseD0NClK0t74rTppq9PiiPyGZtrR0+9XAI3vo
UfUK7GoRTpvD8lYABjtY489ntsMmUA73chE/OSzJt9VpGjPcj4FmxYg/xwGU8D2s
qvOgKujHAgMBAAGjgdIwgc8wHQYDVR0OBBYEFF45x3gxgzBRgtmIm3MLcu9EdHvV
MIGFBgNVHSMEfjB8gBReOcd4MYMwUYLZiJtzC3LvRHR71aFZpFcwVTELMAkGA1UE
BhMCVVMxEzARBgNVBAgTCkNhbGlmb3JuaWExDzANBgNVBAoTBkJ1bXBlcjEPMA0G
A1UECxMGQnVtcGVyMQ8wDQYDVQQDEwZCdW1wZXKCCQCZvUYWdZm9tDAMBgNVHRME
BTADAQH/MBgGA1UdEQQRMA+BDW51bGxAbnVsbC5jb20wDQYJKoZIhvcNAQEFBQAD
ggEBAF5FxzR/m6RrzDznNIR27uyYvg/eq7KlbVkY6yDepPwsTeSanGOZvhZqHcBX
c+h/nnhNKuYRo7ZXGIRurqeXCH4fTTP8Rgan0W460dnvuv2HuODqUYXSpt5J4aZD
0SYV4vmLjPCU/qNi3cyrvqXckNgoDIVL+99K8aw1hn9j/crGqikLsOHjCOZMcdII
MskJImxh7IdJjXdIevd1hrtOF7D+Q00vlb3VD8Hvuvc+4LYv+krJRTaXVqRtr4aI
/5gvsuQETcQCIPxmjNUr6VpsH9JnNMM5fvTHN1NrEZmoKYs/9jqCrvUs1bcjiLsD
hK3L0PaNJJ9UCNE52hqp9hvJU2U=
-----END CERTIFICATE-----
